; Function Attrs: mustprogress nounwind uwtable
define hidden void @_ZN2cv3mcc9CBoundMinD2Ev(ptr noundef nonnull readonly align 8 captures(none) dereferenceable(48) %0) unnamed_addr #4 align 2 personality ptr @__gxx_personality_v0 {
  %2 = getelementptr inbounds nuw i8, ptr %0, i64 24
  %3 = load ptr, ptr %2, align 8, !tbaa !3
  %.not.i.i.i = icmp eq ptr %3, null
  br i1 %.not.i.i.i, label %_ZNSt6vectorIN2cv6Point_IfEESaIS2_EED2Ev.exit, label %4

4:                                                ; preds = %1
  tail call void @_ZdlPv(ptr noundef nonnull %3) #18
  br label %_ZNSt6vectorIN2cv6Point_IfEESaIS2_EED2Ev.exit

_ZNSt6vectorIN2cv6Point_IfEESaIS2_EED2Ev.exit:    ; preds = %1, %4
  %5 = load ptr, ptr %0, align 8, !tbaa !9
  %6 = getelementptr inbounds nuw i8, ptr %0, i64 8
  %7 = load ptr, ptr %6, align 8, !tbaa !12
  %.not4.i.i.i.i = icmp eq ptr %5, %7
  br i1 %.not4.i.i.i.i, label %_ZSt8_DestroyIPN2cv3mcc6CChartES2_EvT_S4_RSaIT0_E.exit.i, label %.lr.ph.i.i.i.i

.lr.ph.i.i.i.i:                                   ; preds = %_ZNSt6vectorIN2cv6Point_IfEESaIS2_EED2Ev.exit, %.lr.ph.i.i.i.i
  %.05.i.i.i.i = phi ptr [ %8, %.lr.ph.i.i.i.i ], [ %5, %_ZNSt6vectorIN2cv6Point_IfEESaIS2_EED2Ev.exit ]
  tail call void @_ZN2cv3mcc6CChartD1Ev(ptr noundef nonnull align 8 dereferenceable(56) %.05.i.i.i.i) #19
  %8 = getelementptr inbounds nuw i8, ptr %.05.i.i.i.i, i64 56
  %.not.i.i.i.i = icmp eq ptr %8, %7
  br i1 %.not.i.i.i.i, label %_ZSt8_DestroyIPN2cv3mcc6CChartES2_EvT_S4_RSaIT0_E.exitthread-pre-split.i, label %.lr.ph.i.i.i.i, !llvm.loop !13

_ZSt8_DestroyIPN2cv3mcc6CChartES2_EvT_S4_RSaIT0_E.exitthread-pre-split.i: ; preds = %.lr.ph.i.i.i.i
  %.pr.i = load ptr, ptr %0, align 8, !tbaa !9
  br label %_ZSt8_DestroyIPN2cv3mcc6CChartES2_EvT_S4_RSaIT0_E.exit.i

_ZSt8_DestroyIPN2cv3mcc6CChartES2_EvT_S4_RSaIT0_E.exit.i: ; preds = %_ZSt8_DestroyIPN2cv3mcc6CChartES2_EvT_S4_RSaIT0_E.exitthread-pre-split.i, %_ZNSt6vectorIN2cv6Point_IfEESaIS2_EED2Ev.exit
  %9 = phi ptr [ %.pr.i, %_ZSt8_DestroyIPN2cv3mcc6CChartES2_EvT_S4_RSaIT0_E.exitthread-pre-split.i ], [ %5, %_ZNSt6vectorIN2cv6Point_IfEESaIS2_EED2Ev.exit ]
  %.not.i.i.i1 = icmp eq ptr %9, null
  br i1 %.not.i.i.i1, label %_ZNSt6vectorIN2cv3mcc6CChartESaIS2_EED2Ev.exit, label %10

10:                                               ; preds = %_ZSt8_DestroyIPN2cv3mcc6CChartES2_EvT_S4_RSaIT0_E.exit.i
  tail call void @_ZdlPv(ptr noundef nonnull %9) #18
  br label %_ZNSt6vectorIN2cv3mcc6CChartESaIS2_EED2Ev.exit

_ZNSt6vectorIN2cv3mcc6CChartESaIS2_EED2Ev.exit:   ; preds = %_ZSt8_DestroyIPN2cv3mcc6CChartES2_EvT_S4_RSaIT0_E.exit.i, %10
  ret void
}